; Function Attrs: mustprogress uwtable
define void @_ZN3g2o11CommandArgs5paramERKNSt7__cxx1112basic_stringIcSt11char_traitsIcESaIcEEERiiS8_(ptr noundef nonnull align 8 dereferenceable(144) %0, ptr noundef nonnull align 8 dereferenceable(32) %1, ptr noundef nonnull align 4 dereferenceable(4) %2, i32 noundef %3, ptr noundef nonnull align 8 dereferenceable(32) %4) local_unnamed_addr #5 align 2 personality ptr @__gxx_personality_v0 {
  %6 = alloca %"struct.g2o::CommandArgs::CommandArgument", align 8
  call void @_ZN3g2o11CommandArgs15CommandArgumentC2Ev(ptr noundef nonnull align 8 dereferenceable(82) %6)
  %7 = invoke noundef nonnull align 8 dereferenceable(32) ptr @_ZNSt7__cxx1112basic_stringIcSt11char_traitsIcESaIcEEaSERKS4_(ptr noundef nonnull align 8 dereferenceable(32) %6, ptr noundef nonnull align 8 dereferenceable(32) %1)
          to label %8 unwind label %28

8:                                                ; preds = %5
  %9 = getelementptr inbounds nuw i8, ptr %6, i64 32
  %10 = invoke noundef nonnull align 8 dereferenceable(32) ptr @_ZNSt7__cxx1112basic_stringIcSt11char_traitsIcESaIcEEaSERKS4_(ptr noundef nonnull align 8 dereferenceable(32) %9, ptr noundef nonnull align 8 dereferenceable(32) %4)
          to label %11 unwind label %28

11:                                               ; preds = %8
  %12 = getelementptr inbounds nuw i8, ptr %6, i64 64
  store i32 2, ptr %12, align 8
  %13 = getelementptr inbounds nuw i8, ptr %6, i64 72
  store ptr %2, ptr %13, align 8
  %14 = getelementptr inbounds nuw i8, ptr %6, i64 80
  store i8 0, ptr %14, align 8
  store i32 %3, ptr %2, align 4
  %15 = getelementptr inbounds i8, ptr %0, i64 16
  %16 = load ptr, ptr %15, align 8
  %17 = getelementptr inbounds i8, ptr %0, i64 24
  %18 = load ptr, ptr %17, align 8
  %.not.i = icmp eq ptr %16, %18
  br i1 %.not.i, label %26, label %19

19:                                               ; preds = %11
  invoke void @_ZNSt7__cxx1112basic_stringIcSt11char_traitsIcESaIcEEC1ERKS4_(ptr noundef nonnull align 8 dereferenceable(32) %16, ptr noundef nonnull align 8 dereferenceable(32) %6)
          to label %.noexc unwind label %28

.noexc:                                           ; preds = %19
  %20 = getelementptr inbounds nuw i8, ptr %16, i64 32
  invoke void @_ZNSt7__cxx1112basic_stringIcSt11char_traitsIcESaIcEEC1ERKS4_(ptr noundef nonnull align 8 dereferenceable(32) %20, ptr noundef nonnull align 8 dereferenceable(32) %9)
          to label %_ZNSt16allocator_traitsISaIN3g2o11CommandArgs15CommandArgumentEEE9constructIS2_JRKS2_EEEvRS3_PT_DpOT0_.exit.i unwind label %21

21:                                               ; preds = %.noexc
  %22 = landingpad { ptr, i32 }
          cleanup
  call void @_ZNSt7__cxx1112basic_stringIcSt11char_traitsIcESaIcEED1Ev(ptr noundef nonnull align 8 dereferenceable(32) %16) #20
  br label %.body

_ZNSt16allocator_traitsISaIN3g2o11CommandArgs15CommandArgumentEEE9constructIS2_JRKS2_EEEvRS3_PT_DpOT0_.exit.i: ; preds = %.noexc
  %23 = getelementptr inbounds nuw i8, ptr %16, i64 64
  call void @llvm.memcpy.p0.p0.i64(ptr noundef nonnull align 8 dereferenceable(18) %23, ptr noundef nonnull align 8 dereferenceable(18) %12, i64 18, i1 false)
  %24 = load ptr, ptr %15, align 8
  %25 = getelementptr inbounds i8, ptr %24, i64 88
  store ptr %25, ptr %15, align 8
  br label %_ZNSt6vectorIN3g2o11CommandArgs15CommandArgumentESaIS2_EE9push_backERKS2_.exit

26:                                               ; preds = %11
  %27 = getelementptr inbounds nuw i8, ptr %0, i64 8
  invoke void @_ZNSt6vectorIN3g2o11CommandArgs15CommandArgumentESaIS2_EE17_M_realloc_insertIJRKS2_EEEvN9__gnu_cxx17__normal_iteratorIPS2_S4_EEDpOT_(ptr noundef nonnull align 8 dereferenceable(24) %27, ptr %16, ptr noundef nonnull align 8 dereferenceable(82) %6)
          to label %_ZNSt6vectorIN3g2o11CommandArgs15CommandArgumentESaIS2_EE9push_backERKS2_.exit unwind label %28

_ZNSt6vectorIN3g2o11CommandArgs15CommandArgumentESaIS2_EE9push_backERKS2_.exit: ; preds = %_ZNSt16allocator_traitsISaIN3g2o11CommandArgs15CommandArgumentEEE9constructIS2_JRKS2_EEEvRS3_PT_DpOT0_.exit.i, %26
  call void @_ZNSt7__cxx1112basic_stringIcSt11char_traitsIcESaIcEED1Ev(ptr noundef nonnull align 8 dereferenceable(32) %9) #20
  call void @_ZNSt7__cxx1112basic_stringIcSt11char_traitsIcESaIcEED1Ev(ptr noundef nonnull align 8 dereferenceable(32) %6) #20
  ret void

28:                                               ; preds = %26, %19, %8, %5
  %29 = landingpad { ptr, i32 }
          cleanup
  br label %.body

.body:                                            ; preds = %21, %28
  %eh.lpad-body = phi { ptr, i32 } [ %29, %28 ], [ %22, %21 ]
  %30 = getelementptr inbounds nuw i8, ptr %6, i64 32
  call void @_ZNSt7__cxx1112basic_stringIcSt11char_traitsIcESaIcEED1Ev(ptr noundef nonnull align 8 dereferenceable(32) %30) #20
  call void @_ZNSt7__cxx1112basic_stringIcSt11char_traitsIcESaIcEED1Ev(ptr noundef nonnull align 8 dereferenceable(32) %6) #20
  resume { ptr, i32 } %eh.lpad-body
}